; ModuleID = 'source-C-CXX/57/955.c'
source_filename = "source-C-CXX/57/955.c"
target datalayout = "e-m:e-p270:32:32-p271:32:32-p272:64:64-i64:64-f80:128-n8:16:32:64-S128"
target triple = "x86_64-pc-linux-gnu"

@.str = private unnamed_addr constant [4 x i8] c"%d\0A\00", align 1
@str = private unnamed_addr constant [2 x i8] c"1\00", align 1
@str.3 = private unnamed_addr constant [2 x i8] c"0\00", align 1

; Function Attrs: nounwind sspstrong uwtable
define dso_local i32 @main() local_unnamed_addr #0 {
  %1 = alloca i32, align 4
  %2 = alloca [81 x i8], align 16
  %3 = bitcast i32* %1 to i8*
  call void @llvm.lifetime.start.p0i8(i64 4, i8* nonnull %3) #5
  %4 = getelementptr inbounds [81 x i8], [81 x i8]* %2, i64 0, i64 0
  call void @llvm.lifetime.start.p0i8(i64 81, i8* nonnull %4) #5
  %5 = call i32 (i8*, ...) @__isoc99_scanf(i8* getelementptr inbounds ([4 x i8], [4 x i8]* @.str, i64 0, i64 0), i32* nonnull %1)
  %6 = load i32, i32* %1, align 4, !tbaa !5
  %7 = icmp sgt i32 %6, 0
  br i1 %7, label %8, label %36

8:                                                ; preds = %0, %30
  %9 = phi i32 [ %33, %30 ], [ 0, %0 ]
  %10 = call i32 (i8*, ...) bitcast (i32 (...)* @gets to i32 (i8*, ...)*)(i8* nonnull %4) #5
  br label %11

11:                                               ; preds = %25, %8
  %12 = phi i64 [ %26, %25 ], [ 0, %8 ]
  %13 = getelementptr inbounds [81 x i8], [81 x i8]* %2, i64 0, i64 %12
  %14 = load i8, i8* %13, align 1, !tbaa !9
  switch i8 %14, label %15 [
    i8 0, label %29
    i8 95, label %25
  ]

15:                                               ; preds = %11
  %16 = and i8 %14, -33
  %17 = add i8 %16, -65
  %18 = icmp ult i8 %17, 26
  br i1 %18, label %25, label %19

19:                                               ; preds = %15
  %20 = icmp sgt i8 %14, 47
  br i1 %20, label %21, label %27

21:                                               ; preds = %19
  %22 = icmp slt i8 %14, 58
  %23 = icmp ne i64 %12, 0
  %24 = select i1 %22, i1 %23, i1 false
  br i1 %24, label %25, label %30

25:                                               ; preds = %15, %11, %21
  %26 = add nuw i64 %12, 1
  br label %11, !llvm.loop !10

27:                                               ; preds = %19
  %28 = icmp eq i8 %14, 0
  br i1 %28, label %29, label %30

29:                                               ; preds = %11, %27
  br label %30

30:                                               ; preds = %21, %27, %29
  %31 = phi i8* [ getelementptr inbounds ([2 x i8], [2 x i8]* @str, i64 0, i64 0), %29 ], [ getelementptr inbounds ([2 x i8], [2 x i8]* @str.3, i64 0, i64 0), %27 ], [ getelementptr inbounds ([2 x i8], [2 x i8]* @str.3, i64 0, i64 0), %21 ]
  %32 = call i32 @puts(i8* nonnull dereferenceable(1) %31)
  %33 = add nuw nsw i32 %9, 1
  %34 = load i32, i32* %1, align 4, !tbaa !5
  %35 = icmp slt i32 %33, %34
  br i1 %35, label %8, label %36, !llvm.loop !12

36:                                               ; preds = %30, %0
  call void @llvm.lifetime.end.p0i8(i64 81, i8* nonnull %4) #5
  call void @llvm.lifetime.end.p0i8(i64 4, i8* nonnull %3) #5
  ret i32 0
}

; Function Attrs: argmemonly mustprogress nofree nosync nounwind willreturn
declare void @llvm.lifetime.start.p0i8(i64 immarg, i8* nocapture) #1

; Function Attrs: nofree nounwind
declare noundef i32 @__isoc99_scanf(i8* nocapture noundef readonly, ...) local_unnamed_addr #2

declare i32 @gets(...) local_unnamed_addr #3

; Function Attrs: argmemonly mustprogress nofree nosync nounwind willreturn
declare void @llvm.lifetime.end.p0i8(i64 immarg, i8* nocapture) #1

; Function Attrs: nofree nounwind
declare noundef i32 @puts(i8* nocapture noundef readonly) local_unnamed_addr #4


!llvm.module.flags = !{!0, !1, !2, !3}
!llvm.ident = !{!4}

!0 = !{i32 1, !"wchar_size", i32 4}
!1 = !{i32 7, !"PIC Level", i32 2}
!2 = !{i32 7, !"PIE Level", i32 2}
!3 = !{i32 7, !"uwtable", i32 1}
!4 = !{!"clang version 13.0.0"}
!5 = !{!6, !6, i64 0}
!6 = !{!"int", !7, i64 0}
!7 = !{!"omnipotent char", !8, i64 0}
!8 = !{!"Simple C/C++ TBAA"}
!9 = !{!7, !7, i64 0}
!10 = distinct !{!10, !11}
!11 = !{!"llvm.loop.mustprogress"}
!12 = distinct !{!12, !11}
